; Function Attrs: mustprogress nofree norecurse nosync nounwind willreturn memory(argmem: readwrite) uwtable
define void @ossl_quic_sstream_fin(ptr noundef captures(none) %0) local_unnamed_addr #6 {
  %2 = getelementptr inbounds nuw i8, ptr %0, i64 80
  %3 = load i8, ptr %2, align 8
  %4 = and i8 %3, 1
  %.not = icmp eq i8 %4, 0
  br i1 %.not, label %5, label %7

5:                                                ; preds = %1
  %6 = or disjoint i8 %3, 1
  store i8 %6, ptr %2, align 8
  br label %7

7:                                                ; preds = %1, %5
  ret void
}